; Function Attrs: nounwind uwtable
define hidden range(i32 -1, 1) i32 @_PyInstructionSequence_AddNested(ptr noundef captures(none) %0, ptr noundef %1) local_unnamed_addr #1 {
  %3 = getelementptr inbounds nuw i8, ptr %0, i64 56
  %4 = load ptr, ptr %3, align 8, !tbaa !34
  %5 = icmp eq ptr %4, null
  br i1 %5, label %6, label %9

6:                                                ; preds = %2
  %7 = tail call ptr @PyList_New(i64 noundef 0) #6
  store ptr %7, ptr %3, align 8, !tbaa !34
  %8 = icmp eq ptr %7, null
  br i1 %8, label %12, label %9

9:                                                ; preds = %6, %2
  %10 = phi ptr [ %7, %6 ], [ %4, %2 ]
  %11 = tail call i32 @PyList_Append(ptr noundef nonnull %10, ptr noundef %1) #6
  %.lobit = ashr i32 %11, 31
  br label %12

12:                                               ; preds = %9, %6
  %.0 = phi i32 [ -1, %6 ], [ %.lobit, %9 ]
  ret i32 %.0
}